; ModuleID = '16/212.c'
source_filename = "16/212.c"
target datalayout = "e-m:e-p270:32:32-p271:32:32-p272:64:64-i64:64-f80:128-n8:16:32:64-S128"
target triple = "x86_64-pc-linux-gnu"

@.str = private unnamed_addr constant [3 x i8] c"%d\00", align 1
@.str.1 = private unnamed_addr constant [5 x i8] c"%d%d\00", align 1
@.str.2 = private unnamed_addr constant [7 x i8] c"%d%d%d\00", align 1
@.str.3 = private unnamed_addr constant [9 x i8] c"%d%d%d%d\00", align 1

; Function Attrs: noinline nounwind uwtable
define dso_local i32 @main() #0 {
  %1 = alloca i32, align 4
  %2 = alloca i32, align 4
  %3 = alloca i32, align 4
  %4 = alloca i32, align 4
  %5 = alloca i32, align 4
  %6 = alloca i32, align 4
  store i32 0, i32* %1, align 4
  %7 = call i32 (i8*, ...) @__isoc99_scanf(i8* getelementptr inbounds ([3 x i8], [3 x i8]* @.str, i64 0, i64 0), i32* %2)
  %8 = load i32, i32* %2, align 4
  %9 = sdiv i32 %8, 1000
  store i32 %9, i32* %3, align 4
  %10 = load i32, i32* %2, align 4
  %11 = srem i32 %10, 1000
  %12 = sdiv i32 %11, 100
  store i32 %12, i32* %4, align 4
  %13 = load i32, i32* %2, align 4
  %14 = srem i32 %13, 100
  %15 = sdiv i32 %14, 10
  store i32 %15, i32* %5, align 4
  %16 = load i32, i32* %2, align 4
  %17 = srem i32 %16, 10
  store i32 %17, i32* %6, align 4
  %18 = load i32, i32* %2, align 4
  %19 = icmp slt i32 %18, 10
  br i1 %19, label %20, label %23

20:                                               ; preds = %0
  %21 = load i32, i32* %6, align 4
  %22 = call i32 (i8*, ...) @printf(i8* getelementptr inbounds ([3 x i8], [3 x i8]* @.str, i64 0, i64 0), i32 %21)
  br label %50

23:                                               ; preds = %0
  %24 = load i32, i32* %2, align 4
  %25 = icmp slt i32 %24, 100
  br i1 %25, label %26, label %30

26:                                               ; preds = %23
  %27 = load i32, i32* %6, align 4
  %28 = load i32, i32* %5, align 4
  %29 = call i32 (i8*, ...) @printf(i8* getelementptr inbounds ([5 x i8], [5 x i8]* @.str.1, i64 0, i64 0), i32 %27, i32 %28)
  br label %49

30:                                               ; preds = %23
  %31 = load i32, i32* %2, align 4
  %32 = icmp slt i32 %31, 1000
  br i1 %32, label %33, label %38

33:                                               ; preds = %30
  %34 = load i32, i32* %6, align 4
  %35 = load i32, i32* %5, align 4
  %36 = load i32, i32* %4, align 4
  %37 = call i32 (i8*, ...) @printf(i8* getelementptr inbounds ([7 x i8], [7 x i8]* @.str.2, i64 0, i64 0), i32 %34, i32 %35, i32 %36)
  br label %48

38:                                               ; preds = %30
  %39 = load i32, i32* %2, align 4
  %40 = icmp slt i32 %39, 10000
  br i1 %40, label %41, label %47

41:                                               ; preds = %38
  %42 = load i32, i32* %6, align 4
  %43 = load i32, i32* %5, align 4
  %44 = load i32, i32* %4, align 4
  %45 = load i32, i32* %3, align 4
  %46 = call i32 (i8*, ...) @printf(i8* getelementptr inbounds ([9 x i8], [9 x i8]* @.str.3, i64 0, i64 0), i32 %42, i32 %43, i32 %44, i32 %45)
  br label %47

47:                                               ; preds = %41, %38
  br label %48

48:                                               ; preds = %47, %33
  br label %49

49:                                               ; preds = %48, %26
  br label %50

50:                                               ; preds = %49, %20
  ret i32 0
}

declare dso_local i32 @__isoc99_scanf(i8*, ...) #1

declare dso_local i32 @printf(i8*, ...) #1


!llvm.module.flags = !{!0}
!llvm.ident = !{!1}

!0 = !{i32 1, !"wchar_size", i32 4}
!1 = !{!"clang version 10.0.0-4ubuntu1 "}
